target datalayout = "e-m:e-p270:32:32-p271:32:32-p272:64:64-i64:64-i128:128-f80:128-n8:16:32:64-S128"
target triple = "x86_64-pc-linux-gnu"

%"struct.Luau::CodeGen::IrOp" = type { i32 }
%struct.lua_TValue = type { %union.Value, [1 x i32], i32 }
%union.Value = type { ptr }
%"struct.Luau::CodeGen::IrBuilder" = type { ptr, i8, i8, i8, %"struct.Luau::CodeGen::IrOp", i32, %"struct.Luau::CodeGen::IrFunction", i32, %"class.std::vector.30", %"class.std::vector.55", %"class.Luau::DenseHashMap" }
%"struct.Luau::CodeGen::IrFunction" = type { %"class.std::vector", %"class.std::vector.0", %"class.std::vector.5", %"class.std::vector.10", %"class.std::vector.15", %"class.std::vector.20", i32, i32, %"class.std::vector.25", %"class.std::vector.30", %"struct.Luau::CodeGen::BytecodeTypeInfo", ptr, i8, %"struct.Luau::CodeGen::CfgInfo", ptr }
%"class.std::vector" = type { %"struct.std::_Vector_base" }
%"struct.std::_Vector_base" = type { %"struct.std::_Vector_base<Luau::CodeGen::IrBlock, std::allocator<Luau::CodeGen::IrBlock>>::_Vector_impl" }
%"struct.std::_Vector_base<Luau::CodeGen::IrBlock, std::allocator<Luau::CodeGen::IrBlock>>::_Vector_impl" = type { %"struct.std::_Vector_base<Luau::CodeGen::IrBlock, std::allocator<Luau::CodeGen::IrBlock>>::_Vector_impl_data" }
%"struct.std::_Vector_base<Luau::CodeGen::IrBlock, std::allocator<Luau::CodeGen::IrBlock>>::_Vector_impl_data" = type { ptr, ptr, ptr }
%"class.std::vector.0" = type { %"struct.std::_Vector_base.1" }
%"struct.std::_Vector_base.1" = type { %"struct.std::_Vector_base<Luau::CodeGen::IrInst, std::allocator<Luau::CodeGen::IrInst>>::_Vector_impl" }
%"struct.std::_Vector_base<Luau::CodeGen::IrInst, std::allocator<Luau::CodeGen::IrInst>>::_Vector_impl" = type { %"struct.std::_Vector_base<Luau::CodeGen::IrInst, std::allocator<Luau::CodeGen::IrInst>>::_Vector_impl_data" }
%"struct.std::_Vector_base<Luau::CodeGen::IrInst, std::allocator<Luau::CodeGen::IrInst>>::_Vector_impl_data" = type { ptr, ptr, ptr }
%"class.std::vector.5" = type { %"struct.std::_Vector_base.6" }
%"struct.std::_Vector_base.6" = type { %"struct.std::_Vector_base<Luau::CodeGen::IrConst, std::allocator<Luau::CodeGen::IrConst>>::_Vector_impl" }
%"struct.std::_Vector_base<Luau::CodeGen::IrConst, std::allocator<Luau::CodeGen::IrConst>>::_Vector_impl" = type { %"struct.std::_Vector_base<Luau::CodeGen::IrConst, std::allocator<Luau::CodeGen::IrConst>>::_Vector_impl_data" }
%"struct.std::_Vector_base<Luau::CodeGen::IrConst, std::allocator<Luau::CodeGen::IrConst>>::_Vector_impl_data" = type { ptr, ptr, ptr }
%"class.std::vector.10" = type { %"struct.std::_Vector_base.11" }
%"struct.std::_Vector_base.11" = type { %"struct.std::_Vector_base<Luau::CodeGen::BytecodeBlock, std::allocator<Luau::CodeGen::BytecodeBlock>>::_Vector_impl" }
%"struct.std::_Vector_base<Luau::CodeGen::BytecodeBlock, std::allocator<Luau::CodeGen::BytecodeBlock>>::_Vector_impl" = type { %"struct.std::_Vector_base<Luau::CodeGen::BytecodeBlock, std::allocator<Luau::CodeGen::BytecodeBlock>>::_Vector_impl_data" }
%"struct.std::_Vector_base<Luau::CodeGen::BytecodeBlock, std::allocator<Luau::CodeGen::BytecodeBlock>>::_Vector_impl_data" = type { ptr, ptr, ptr }
%"class.std::vector.15" = type { %"struct.std::_Vector_base.16" }
%"struct.std::_Vector_base.16" = type { %"struct.std::_Vector_base<Luau::CodeGen::BytecodeTypes, std::allocator<Luau::CodeGen::BytecodeTypes>>::_Vector_impl" }
%"struct.std::_Vector_base<Luau::CodeGen::BytecodeTypes, std::allocator<Luau::CodeGen::BytecodeTypes>>::_Vector_impl" = type { %"struct.std::_Vector_base<Luau::CodeGen::BytecodeTypes, std::allocator<Luau::CodeGen::BytecodeTypes>>::_Vector_impl_data" }
%"struct.std::_Vector_base<Luau::CodeGen::BytecodeTypes, std::allocator<Luau::CodeGen::BytecodeTypes>>::_Vector_impl_data" = type { ptr, ptr, ptr }
%"class.std::vector.20" = type { %"struct.std::_Vector_base.21" }
%"struct.std::_Vector_base.21" = type { %"struct.std::_Vector_base<Luau::CodeGen::BytecodeMapping, std::allocator<Luau::CodeGen::BytecodeMapping>>::_Vector_impl" }
%"struct.std::_Vector_base<Luau::CodeGen::BytecodeMapping, std::allocator<Luau::CodeGen::BytecodeMapping>>::_Vector_impl" = type { %"struct.std::_Vector_base<Luau::CodeGen::BytecodeMapping, std::allocator<Luau::CodeGen::BytecodeMapping>>::_Vector_impl_data" }
%"struct.std::_Vector_base<Luau::CodeGen::BytecodeMapping, std::allocator<Luau::CodeGen::BytecodeMapping>>::_Vector_impl_data" = type { ptr, ptr, ptr }
%"class.std::vector.25" = type { %"struct.std::_Vector_base.26" }
%"struct.std::_Vector_base.26" = type { %"struct.std::_Vector_base<Luau::CodeGen::IrOp, std::allocator<Luau::CodeGen::IrOp>>::_Vector_impl" }
%"struct.std::_Vector_base<Luau::CodeGen::IrOp, std::allocator<Luau::CodeGen::IrOp>>::_Vector_impl" = type { %"struct.std::_Vector_base<Luau::CodeGen::IrOp, std::allocator<Luau::CodeGen::IrOp>>::_Vector_impl_data" }
%"struct.std::_Vector_base<Luau::CodeGen::IrOp, std::allocator<Luau::CodeGen::IrOp>>::_Vector_impl_data" = type { ptr, ptr, ptr }
%"struct.Luau::CodeGen::BytecodeTypeInfo" = type { %"class.std::vector.35", %"class.std::vector.40", %"class.std::vector.35", %"class.std::vector.30" }
%"class.std::vector.40" = type { %"struct.std::_Vector_base.41" }
%"struct.std::_Vector_base.41" = type { %"struct.std::_Vector_base<Luau::CodeGen::BytecodeRegTypeInfo, std::allocator<Luau::CodeGen::BytecodeRegTypeInfo>>::_Vector_impl" }
%"struct.std::_Vector_base<Luau::CodeGen::BytecodeRegTypeInfo, std::allocator<Luau::CodeGen::BytecodeRegTypeInfo>>::_Vector_impl" = type { %"struct.std::_Vector_base<Luau::CodeGen::BytecodeRegTypeInfo, std::allocator<Luau::CodeGen::BytecodeRegTypeInfo>>::_Vector_impl_data" }
%"struct.std::_Vector_base<Luau::CodeGen::BytecodeRegTypeInfo, std::allocator<Luau::CodeGen::BytecodeRegTypeInfo>>::_Vector_impl_data" = type { ptr, ptr, ptr }
%"class.std::vector.35" = type { %"struct.std::_Vector_base.36" }
%"struct.std::_Vector_base.36" = type { %"struct.std::_Vector_base<unsigned char, std::allocator<unsigned char>>::_Vector_impl" }
%"struct.std::_Vector_base<unsigned char, std::allocator<unsigned char>>::_Vector_impl" = type { %"struct.std::_Vector_base<unsigned char, std::allocator<unsigned char>>::_Vector_impl_data" }
%"struct.std::_Vector_base<unsigned char, std::allocator<unsigned char>>::_Vector_impl_data" = type { ptr, ptr, ptr }
%"struct.Luau::CodeGen::CfgInfo" = type { %"class.std::vector.30", %"class.std::vector.30", %"class.std::vector.30", %"class.std::vector.30", %"class.std::vector.30", %"class.std::vector.30", %"class.std::vector.30", %"class.std::vector.45", %"class.std::vector.50", %"class.std::vector.50", %"class.std::vector.50", %"struct.Luau::CodeGen::RegisterSet" }
%"class.std::vector.45" = type { %"struct.std::_Vector_base.46" }
%"struct.std::_Vector_base.46" = type { %"struct.std::_Vector_base<Luau::CodeGen::BlockOrdering, std::allocator<Luau::CodeGen::BlockOrdering>>::_Vector_impl" }
%"struct.std::_Vector_base<Luau::CodeGen::BlockOrdering, std::allocator<Luau::CodeGen::BlockOrdering>>::_Vector_impl" = type { %"struct.std::_Vector_base<Luau::CodeGen::BlockOrdering, std::allocator<Luau::CodeGen::BlockOrdering>>::_Vector_impl_data" }
%"struct.std::_Vector_base<Luau::CodeGen::BlockOrdering, std::allocator<Luau::CodeGen::BlockOrdering>>::_Vector_impl_data" = type { ptr, ptr, ptr }
%"class.std::vector.50" = type { %"struct.std::_Vector_base.51" }
%"struct.std::_Vector_base.51" = type { %"struct.std::_Vector_base<Luau::CodeGen::RegisterSet, std::allocator<Luau::CodeGen::RegisterSet>>::_Vector_impl" }
%"struct.std::_Vector_base<Luau::CodeGen::RegisterSet, std::allocator<Luau::CodeGen::RegisterSet>>::_Vector_impl" = type { %"struct.std::_Vector_base<Luau::CodeGen::RegisterSet, std::allocator<Luau::CodeGen::RegisterSet>>::_Vector_impl_data" }
%"struct.std::_Vector_base<Luau::CodeGen::RegisterSet, std::allocator<Luau::CodeGen::RegisterSet>>::_Vector_impl_data" = type { ptr, ptr, ptr }
%"struct.Luau::CodeGen::RegisterSet" = type <{ %"class.std::bitset", i8, i8, [6 x i8] }>
%"class.std::bitset" = type { %"struct.std::_Base_bitset" }
%"struct.std::_Base_bitset" = type { [4 x i64] }
%"class.std::vector.30" = type { %"struct.std::_Vector_base.31" }
%"struct.std::_Vector_base.31" = type { %"struct.std::_Vector_base<unsigned int, std::allocator<unsigned int>>::_Vector_impl" }
%"struct.std::_Vector_base<unsigned int, std::allocator<unsigned int>>::_Vector_impl" = type { %"struct.std::_Vector_base<unsigned int, std::allocator<unsigned int>>::_Vector_impl_data" }
%"struct.std::_Vector_base<unsigned int, std::allocator<unsigned int>>::_Vector_impl_data" = type { ptr, ptr, ptr }
%"class.std::vector.55" = type { %"struct.std::_Vector_base.56" }
%"struct.std::_Vector_base.56" = type { %"struct.std::_Vector_base<Luau::CodeGen::IrBuilder::LoopInfo, std::allocator<Luau::CodeGen::IrBuilder::LoopInfo>>::_Vector_impl" }
%"struct.std::_Vector_base<Luau::CodeGen::IrBuilder::LoopInfo, std::allocator<Luau::CodeGen::IrBuilder::LoopInfo>>::_Vector_impl" = type { %"struct.std::_Vector_base<Luau::CodeGen::IrBuilder::LoopInfo, std::allocator<Luau::CodeGen::IrBuilder::LoopInfo>>::_Vector_impl_data" }
%"struct.std::_Vector_base<Luau::CodeGen::IrBuilder::LoopInfo, std::allocator<Luau::CodeGen::IrBuilder::LoopInfo>>::_Vector_impl_data" = type { ptr, ptr, ptr }
%"class.Luau::DenseHashMap" = type { %"class.Luau::detail::DenseHashTable" }
%"class.Luau::detail::DenseHashTable" = type <{ ptr, i64, i64, %"struct.Luau::CodeGen::IrBuilder::ConstantKey", [8 x i8] }>
%"struct.Luau::CodeGen::IrBuilder::ConstantKey" = type { i8, i64 }
%struct.Proto = type { i8, i8, i8, i8, i8, i8, i8, i8, ptr, ptr, ptr, ptr, ptr, i64, ptr, ptr, ptr, ptr, ptr, ptr, ptr, ptr, ptr, ptr, i32, i32, i32, i32, i32, i32, i32, i32, i32, i32 }

; Function Attrs: mustprogress uwtable
define dso_local void @_ZN4Luau7CodeGen21translateInstJumpxEqNERNS0_9IrBuilderEPKji(ptr noundef nonnull align 8 dereferenceable(752) %0, ptr noundef %1, i32 noundef %2) #0 {
  %4 = alloca ptr, align 8
  %5 = alloca ptr, align 8
  %6 = alloca i32, align 4
  %7 = alloca i32, align 4
  %8 = alloca i32, align 4
  %9 = alloca i8, align 1
  %10 = alloca %"struct.Luau::CodeGen::IrOp", align 4
  %11 = alloca %"struct.Luau::CodeGen::IrOp", align 4
  %12 = alloca %"struct.Luau::CodeGen::IrOp", align 4
  %13 = alloca %"struct.Luau::CodeGen::IrOp", align 4
  %14 = alloca %"struct.Luau::CodeGen::IrOp", align 4
  %15 = alloca %"struct.Luau::CodeGen::IrOp", align 4
  %16 = alloca %"struct.Luau::CodeGen::IrOp", align 4
  %17 = alloca %"struct.Luau::CodeGen::IrOp", align 4
  %18 = alloca %"struct.Luau::CodeGen::IrOp", align 4
  %19 = alloca %"struct.Luau::CodeGen::IrOp", align 4
  %20 = alloca %"struct.Luau::CodeGen::IrOp", align 4
  %21 = alloca %"struct.Luau::CodeGen::IrOp", align 4
  %22 = alloca %"struct.Luau::CodeGen::IrOp", align 4
  %23 = alloca %struct.lua_TValue, align 8
  %24 = alloca %"struct.Luau::CodeGen::IrOp", align 4
  %25 = alloca %"struct.Luau::CodeGen::IrOp", align 4
  %26 = alloca %"struct.Luau::CodeGen::IrOp", align 4
  %27 = alloca %"struct.Luau::CodeGen::IrOp", align 4
  %28 = alloca %"struct.Luau::CodeGen::IrOp", align 4
  %29 = alloca %"struct.Luau::CodeGen::IrOp", align 4
  %30 = alloca %"struct.Luau::CodeGen::IrOp", align 4
  %31 = alloca %"struct.Luau::CodeGen::IrOp", align 4
  %32 = alloca %"struct.Luau::CodeGen::IrOp", align 4
  store ptr %0, ptr %4, align 8, !tbaa !4
  store ptr %1, ptr %5, align 8, !tbaa !9
  store i32 %2, ptr %6, align 4, !tbaa !11
  call void @llvm.lifetime.start.p0(i64 4, ptr %7) #13
  %33 = load ptr, ptr %5, align 8, !tbaa !9
  %34 = load i32, ptr %33, align 4, !tbaa !11
  %35 = lshr i32 %34, 8
  %36 = and i32 %35, 255
  store i32 %36, ptr %7, align 4, !tbaa !11
  call void @llvm.lifetime.start.p0(i64 4, ptr %8) #13
  %37 = load ptr, ptr %5, align 8, !tbaa !9
  %38 = getelementptr inbounds i32, ptr %37, i64 1
  %39 = load i32, ptr %38, align 4, !tbaa !11
  store i32 %39, ptr %8, align 4, !tbaa !11
  call void @llvm.lifetime.start.p0(i64 1, ptr %9) #13
  %40 = load i32, ptr %8, align 4, !tbaa !11
  %41 = and i32 %40, -2147483648
  %42 = icmp ne i32 %41, 0
  %43 = zext i1 %42 to i8
  store i8 %43, ptr %9, align 1, !tbaa !113
  call void @llvm.lifetime.start.p0(i64 4, ptr %10) #13
  %44 = load ptr, ptr %4, align 8, !tbaa !4
  %45 = load i32, ptr %6, align 4, !tbaa !11
  %46 = add nsw i32 %45, 1
  %47 = load ptr, ptr %5, align 8, !tbaa !9
  %48 = load i32, ptr %47, align 4, !tbaa !11
  %49 = ashr i32 %48, 16
  %50 = add nsw i32 %46, %49
  %51 = call i32 @_ZN4Luau7CodeGen9IrBuilder11blockAtInstEj(ptr noundef nonnull align 8 dereferenceable(752) %44, i32 noundef %50)
  %52 = getelementptr inbounds nuw %"struct.Luau::CodeGen::IrOp", ptr %10, i32 0, i32 0
  store i32 %51, ptr %52, align 4
  call void @llvm.lifetime.start.p0(i64 4, ptr %11) #13
  %53 = load ptr, ptr %4, align 8, !tbaa !4
  %54 = load i32, ptr %6, align 4, !tbaa !11
  %55 = add nsw i32 %54, 2
  %56 = call i32 @_ZN4Luau7CodeGen9IrBuilder11blockAtInstEj(ptr noundef nonnull align 8 dereferenceable(752) %53, i32 noundef %55)
  %57 = getelementptr inbounds nuw %"struct.Luau::CodeGen::IrOp", ptr %11, i32 0, i32 0
  store i32 %56, ptr %57, align 4
  call void @llvm.lifetime.start.p0(i64 4, ptr %12) #13
  %58 = load ptr, ptr %4, align 8, !tbaa !4
  %59 = call i32 @_ZN4Luau7CodeGen9IrBuilder5blockENS0_11IrBlockKindE(ptr noundef nonnull align 8 dereferenceable(752) %58, i8 noundef zeroext 2)
  %60 = getelementptr inbounds nuw %"struct.Luau::CodeGen::IrOp", ptr %12, i32 0, i32 0
  store i32 %59, ptr %60, align 4
  call void @llvm.lifetime.start.p0(i64 4, ptr %13) #13
  %61 = load ptr, ptr %4, align 8, !tbaa !4
  %62 = load ptr, ptr %4, align 8, !tbaa !4
  %63 = load i32, ptr %7, align 4, !tbaa !11
  %64 = trunc i32 %63 to i8
  %65 = call i32 @_ZN4Luau7CodeGen9IrBuilder5vmRegEh(ptr noundef nonnull align 8 dereferenceable(752) %62, i8 noundef zeroext %64)
  %66 = getelementptr inbounds nuw %"struct.Luau::CodeGen::IrOp", ptr %14, i32 0, i32 0
  store i32 %65, ptr %66, align 4
  %67 = getelementptr inbounds nuw %"struct.Luau::CodeGen::IrOp", ptr %14, i32 0, i32 0
  %68 = load i32, ptr %67, align 4
  %69 = call i32 @_ZN4Luau7CodeGen9IrBuilder4instENS0_5IrCmdENS0_4IrOpE(ptr noundef nonnull align 8 dereferenceable(752) %61, i8 noundef zeroext 1, i32 %68)
  %70 = getelementptr inbounds nuw %"struct.Luau::CodeGen::IrOp", ptr %13, i32 0, i32 0
  store i32 %69, ptr %70, align 4
  %71 = load ptr, ptr %4, align 8, !tbaa !4
  call void @llvm.memcpy.p0.p0.i64(ptr align 4 %15, ptr align 4 %13, i64 4, i1 false), !tbaa.struct !112
  %72 = load ptr, ptr %4, align 8, !tbaa !4
  %73 = call i32 @_ZN4Luau7CodeGen9IrBuilder8constTagEh(ptr noundef nonnull align 8 dereferenceable(752) %72, i8 noundef zeroext 3)
  %74 = getelementptr inbounds nuw %"struct.Luau::CodeGen::IrOp", ptr %16, i32 0, i32 0
  store i32 %73, ptr %74, align 4
  call void @llvm.memcpy.p0.p0.i64(ptr align 4 %17, ptr align 4 %12, i64 4, i1 false), !tbaa.struct !112
  %75 = load i8, ptr %9, align 1, !tbaa !113, !range !114, !noundef !115
  %76 = trunc i8 %75 to i1
  br i1 %76, label %77, label %78

77:                                               ; preds = %3
  br label %79

78:                                               ; preds = %3
  br label %79

79:                                               ; preds = %78, %77
  %80 = phi ptr [ %10, %77 ], [ %11, %78 ]
  call void @llvm.memcpy.p0.p0.i64(ptr align 4 %18, ptr align 4 %80, i64 4, i1 false), !tbaa.struct !112
  %81 = getelementptr inbounds nuw %"struct.Luau::CodeGen::IrOp", ptr %15, i32 0, i32 0
  %82 = load i32, ptr %81, align 4
  %83 = getelementptr inbounds nuw %"struct.Luau::CodeGen::IrOp", ptr %16, i32 0, i32 0
  %84 = load i32, ptr %83, align 4
  %85 = getelementptr inbounds nuw %"struct.Luau::CodeGen::IrOp", ptr %17, i32 0, i32 0
  %86 = load i32, ptr %85, align 4
  %87 = getelementptr inbounds nuw %"struct.Luau::CodeGen::IrOp", ptr %18, i32 0, i32 0
  %88 = load i32, ptr %87, align 4
  %89 = call i32 @_ZN4Luau7CodeGen9IrBuilder4instENS0_5IrCmdENS0_4IrOpES3_S3_S3_(ptr noundef nonnull align 8 dereferenceable(752) %71, i8 noundef zeroext 49, i32 %82, i32 %84, i32 %86, i32 %88)
  %90 = getelementptr inbounds nuw %"struct.Luau::CodeGen::IrOp", ptr %19, i32 0, i32 0
  store i32 %89, ptr %90, align 4
  %91 = load ptr, ptr %4, align 8, !tbaa !4
  call void @llvm.memcpy.p0.p0.i64(ptr align 4 %20, ptr align 4 %12, i64 4, i1 false), !tbaa.struct !112
  %92 = getelementptr inbounds nuw %"struct.Luau::CodeGen::IrOp", ptr %20, i32 0, i32 0
  %93 = load i32, ptr %92, align 4
  call void @_ZN4Luau7CodeGen9IrBuilder10beginBlockENS0_4IrOpE(ptr noundef nonnull align 8 dereferenceable(752) %91, i32 %93)
  call void @llvm.lifetime.start.p0(i64 4, ptr %21) #13
  %94 = load ptr, ptr %4, align 8, !tbaa !4
  %95 = load ptr, ptr %4, align 8, !tbaa !4
  %96 = load i32, ptr %7, align 4, !tbaa !11
  %97 = trunc i32 %96 to i8
  %98 = call i32 @_ZN4Luau7CodeGen9IrBuilder5vmRegEh(ptr noundef nonnull align 8 dereferenceable(752) %95, i8 noundef zeroext %97)
  %99 = getelementptr inbounds nuw %"struct.Luau::CodeGen::IrOp", ptr %22, i32 0, i32 0
  store i32 %98, ptr %99, align 4
  %100 = getelementptr inbounds nuw %"struct.Luau::CodeGen::IrOp", ptr %22, i32 0, i32 0
  %101 = load i32, ptr %100, align 4
  %102 = call i32 @_ZN4Luau7CodeGen9IrBuilder4instENS0_5IrCmdENS0_4IrOpE(ptr noundef nonnull align 8 dereferenceable(752) %94, i8 noundef zeroext 3, i32 %101)
  %103 = getelementptr inbounds nuw %"struct.Luau::CodeGen::IrOp", ptr %21, i32 0, i32 0
  store i32 %102, ptr %103, align 4
  call void @llvm.lifetime.start.p0(i64 16, ptr %23) #13
  %104 = load ptr, ptr %4, align 8, !tbaa !4
  %105 = getelementptr inbounds nuw %"struct.Luau::CodeGen::IrBuilder", ptr %104, i32 0, i32 6
  %106 = getelementptr inbounds nuw %"struct.Luau::CodeGen::IrFunction", ptr %105, i32 0, i32 11
  %107 = load ptr, ptr %106, align 8, !tbaa !13
  %108 = getelementptr inbounds nuw %struct.Proto, ptr %107, i32 0, i32 8
  %109 = load ptr, ptr %108, align 8, !tbaa !99
  %110 = load i32, ptr %8, align 4, !tbaa !11
  %111 = and i32 %110, 16777215
  %112 = zext i32 %111 to i64
  %113 = getelementptr inbounds nuw %struct.lua_TValue, ptr %109, i64 %112
  call void @llvm.memcpy.p0.p0.i64(ptr align 8 %23, ptr align 8 %113, i64 16, i1 false), !tbaa.struct !108
  call void @llvm.lifetime.start.p0(i64 4, ptr %24) #13
  %114 = load ptr, ptr %4, align 8, !tbaa !4
  %115 = getelementptr inbounds nuw %struct.lua_TValue, ptr %23, i32 0, i32 0
  %116 = load double, ptr %115, align 8, !tbaa !109
  %117 = call i32 @_ZN4Luau7CodeGen9IrBuilder11constDoubleEd(ptr noundef nonnull align 8 dereferenceable(752) %114, double noundef %116)
  %118 = getelementptr inbounds nuw %"struct.Luau::CodeGen::IrOp", ptr %24, i32 0, i32 0
  store i32 %117, ptr %118, align 4
  %119 = load ptr, ptr %4, align 8, !tbaa !4
  call void @llvm.memcpy.p0.p0.i64(ptr align 4 %25, ptr align 4 %21, i64 4, i1 false), !tbaa.struct !112
  call void @llvm.memcpy.p0.p0.i64(ptr align 4 %26, ptr align 4 %24, i64 4, i1 false), !tbaa.struct !112
  %120 = load ptr, ptr %4, align 8, !tbaa !4
  %121 = call i32 @_ZN4Luau7CodeGen9IrBuilder4condENS0_11IrConditionE(ptr noundef nonnull align 8 dereferenceable(752) %120, i8 noundef zeroext 1)
  %122 = getelementptr inbounds nuw %"struct.Luau::CodeGen::IrOp", ptr %27, i32 0, i32 0
  store i32 %121, ptr %122, align 4
  %123 = load i8, ptr %9, align 1, !tbaa !113, !range !114, !noundef !115
  %124 = trunc i8 %123 to i1
  br i1 %124, label %125, label %126

125:                                              ; preds = %79
  br label %127

126:                                              ; preds = %79
  br label %127

127:                                              ; preds = %126, %125
  %128 = phi ptr [ %10, %125 ], [ %11, %126 ]
  call void @llvm.memcpy.p0.p0.i64(ptr align 4 %28, ptr align 4 %128, i64 4, i1 false), !tbaa.struct !112
  %129 = load i8, ptr %9, align 1, !tbaa !113, !range !114, !noundef !115
  %130 = trunc i8 %129 to i1
  br i1 %130, label %131, label %132

131:                                              ; preds = %127
  br label %133

132:                                              ; preds = %127
  br label %133

133:                                              ; preds = %132, %131
  %134 = phi ptr [ %11, %131 ], [ %10, %132 ]
  call void @llvm.memcpy.p0.p0.i64(ptr align 4 %29, ptr align 4 %134, i64 4, i1 false), !tbaa.struct !112
  %135 = getelementptr inbounds nuw %"struct.Luau::CodeGen::IrOp", ptr %25, i32 0, i32 0
  %136 = load i32, ptr %135, align 4
  %137 = getelementptr inbounds nuw %"struct.Luau::CodeGen::IrOp", ptr %26, i32 0, i32 0
  %138 = load i32, ptr %137, align 4
  %139 = getelementptr inbounds nuw %"struct.Luau::CodeGen::IrOp", ptr %27, i32 0, i32 0
  %140 = load i32, ptr %139, align 4
  %141 = getelementptr inbounds nuw %"struct.Luau::CodeGen::IrOp", ptr %28, i32 0, i32 0
  %142 = load i32, ptr %141, align 4
  %143 = getelementptr inbounds nuw %"struct.Luau::CodeGen::IrOp", ptr %29, i32 0, i32 0
  %144 = load i32, ptr %143, align 4
  %145 = call i32 @_ZN4Luau7CodeGen9IrBuilder4instENS0_5IrCmdENS0_4IrOpES3_S3_S3_S3_(ptr noundef nonnull align 8 dereferenceable(752) %119, i8 noundef zeroext 52, i32 %136, i32 %138, i32 %140, i32 %142, i32 %144)
  %146 = getelementptr inbounds nuw %"struct.Luau::CodeGen::IrOp", ptr %30, i32 0, i32 0
  store i32 %145, ptr %146, align 4
  %147 = load ptr, ptr %4, align 8, !tbaa !4
  call void @llvm.memcpy.p0.p0.i64(ptr align 4 %31, ptr align 4 %11, i64 4, i1 false), !tbaa.struct !112
  %148 = getelementptr inbounds nuw %"struct.Luau::CodeGen::IrOp", ptr %31, i32 0, i32 0
  %149 = load i32, ptr %148, align 4
  %150 = call noundef zeroext i1 @_ZN4Luau7CodeGen9IrBuilder15isInternalBlockENS0_4IrOpE(ptr noundef nonnull align 8 dereferenceable(752) %147, i32 %149)
  br i1 %150, label %151, label %155

151:                                              ; preds = %133
  %152 = load ptr, ptr %4, align 8, !tbaa !4
  call void @llvm.memcpy.p0.p0.i64(ptr align 4 %32, ptr align 4 %11, i64 4, i1 false), !tbaa.struct !112
  %153 = getelementptr inbounds nuw %"struct.Luau::CodeGen::IrOp", ptr %32, i32 0, i32 0
  %154 = load i32, ptr %153, align 4
  call void @_ZN4Luau7CodeGen9IrBuilder10beginBlockENS0_4IrOpE(ptr noundef nonnull align 8 dereferenceable(752) %152, i32 %154)
  br label %155

155:                                              ; preds = %151, %133
  call void @llvm.lifetime.end.p0(i64 4, ptr %24) #13
  call void @llvm.lifetime.end.p0(i64 16, ptr %23) #13
  call void @llvm.lifetime.end.p0(i64 4, ptr %21) #13
  call void @llvm.lifetime.end.p0(i64 4, ptr %13) #13
  call void @llvm.lifetime.end.p0(i64 4, ptr %12) #13
  call void @llvm.lifetime.end.p0(i64 4, ptr %11) #13
  call void @llvm.lifetime.end.p0(i64 4, ptr %10) #13
  call void @llvm.lifetime.end.p0(i64 1, ptr %9) #13
  call void @llvm.lifetime.end.p0(i64 4, ptr %8) #13
  call void @llvm.lifetime.end.p0(i64 4, ptr %7) #13
  ret void
}